target datalayout = "e-m:e-p270:32:32-p271:32:32-p272:64:64-i64:64-i128:128-f80:128-n8:16:32:64-S128"
target triple = "x86_64-pc-linux-gnu"

%struct.mbedtls_dhm_context = type { %struct.mbedtls_mpi, %struct.mbedtls_mpi, %struct.mbedtls_mpi, %struct.mbedtls_mpi, %struct.mbedtls_mpi, %struct.mbedtls_mpi, %struct.mbedtls_mpi, %struct.mbedtls_mpi, %struct.mbedtls_mpi, %struct.mbedtls_mpi }
%struct.mbedtls_mpi = type { ptr, i16, i16 }

@.str.3 = private unnamed_addr constant [23 x i8] c"  DHM parameter load: \00", align 1
@.str.4 = private unnamed_addr constant [8 x i8] c"failed\0A\00", align 1
@.str.5 = private unnamed_addr constant [9 x i8] c"passed\0A\0A\00", align 1

; Function Attrs: nounwind uwtable
define hidden void @mbedtls_dhm_free(ptr noundef %0) #0 {
  %2 = alloca ptr, align 8
  store ptr %0, ptr %2, align 8, !tbaa !3
  %3 = load ptr, ptr %2, align 8, !tbaa !3
  %4 = icmp eq ptr %3, null
  br i1 %4, label %5, label %6

5:                                                ; preds = %1
  br label %28

6:                                                ; preds = %1
  %7 = load ptr, ptr %2, align 8, !tbaa !3
  %8 = getelementptr inbounds nuw %struct.mbedtls_dhm_context, ptr %7, i32 0, i32 9
  call void @mbedtls_mpi_free(ptr noundef %8)
  %9 = load ptr, ptr %2, align 8, !tbaa !3
  %10 = getelementptr inbounds nuw %struct.mbedtls_dhm_context, ptr %9, i32 0, i32 8
  call void @mbedtls_mpi_free(ptr noundef %10)
  %11 = load ptr, ptr %2, align 8, !tbaa !3
  %12 = getelementptr inbounds nuw %struct.mbedtls_dhm_context, ptr %11, i32 0, i32 7
  call void @mbedtls_mpi_free(ptr noundef %12)
  %13 = load ptr, ptr %2, align 8, !tbaa !3
  %14 = getelementptr inbounds nuw %struct.mbedtls_dhm_context, ptr %13, i32 0, i32 6
  call void @mbedtls_mpi_free(ptr noundef %14)
  %15 = load ptr, ptr %2, align 8, !tbaa !3
  %16 = getelementptr inbounds nuw %struct.mbedtls_dhm_context, ptr %15, i32 0, i32 5
  call void @mbedtls_mpi_free(ptr noundef %16)
  %17 = load ptr, ptr %2, align 8, !tbaa !3
  %18 = getelementptr inbounds nuw %struct.mbedtls_dhm_context, ptr %17, i32 0, i32 4
  call void @mbedtls_mpi_free(ptr noundef %18)
  %19 = load ptr, ptr %2, align 8, !tbaa !3
  %20 = getelementptr inbounds nuw %struct.mbedtls_dhm_context, ptr %19, i32 0, i32 3
  call void @mbedtls_mpi_free(ptr noundef %20)
  %21 = load ptr, ptr %2, align 8, !tbaa !3
  %22 = getelementptr inbounds nuw %struct.mbedtls_dhm_context, ptr %21, i32 0, i32 2
  call void @mbedtls_mpi_free(ptr noundef %22)
  %23 = load ptr, ptr %2, align 8, !tbaa !3
  %24 = getelementptr inbounds nuw %struct.mbedtls_dhm_context, ptr %23, i32 0, i32 1
  call void @mbedtls_mpi_free(ptr noundef %24)
  %25 = load ptr, ptr %2, align 8, !tbaa !3
  %26 = getelementptr inbounds nuw %struct.mbedtls_dhm_context, ptr %25, i32 0, i32 0
  call void @mbedtls_mpi_free(ptr noundef %26)
  %27 = load ptr, ptr %2, align 8, !tbaa !3
  call void @mbedtls_platform_zeroize(ptr noundef %27, i64 noundef 160)
  br label %28

28:                                               ; preds = %6, %5
  ret void
}

; Function Attrs: nounwind uwtable
define hidden void @mbedtls_dhm_init(ptr noundef %0) #0 {
  %2 = alloca ptr, align 8
  store ptr %0, ptr %2, align 8, !tbaa !3
  %3 = load ptr, ptr %2, align 8, !tbaa !3
  call void @llvm.memset.p0.i64(ptr align 8 %3, i8 0, i64 160, i1 false)
  ret void
}

; Function Attrs: nounwind uwtable
define hidden i32 @mbedtls_dhm_self_test(i32 noundef %0) #0 {
  %2 = alloca i32, align 4
  %3 = alloca i32, align 4
  %4 = alloca %struct.mbedtls_dhm_context, align 8
  store i32 %0, ptr %2, align 4, !tbaa !8
  call void @llvm.lifetime.start.p0(i64 4, ptr %3) #10
  store i32 -110, ptr %3, align 4, !tbaa !8
  call void @llvm.lifetime.start.p0(i64 160, ptr %4) #10
  call void @mbedtls_dhm_init(ptr noundef %4)
  %5 = load i32, ptr %2, align 4, !tbaa !8
  %6 = icmp ne i32 %5, 0
  br i1 %6, label %7, label %9

7:                                                ; preds = %1
  %8 = call i32 (ptr, ...) @printf(ptr noundef @.str.3)
  br label %9

9:                                                ; preds = %7, %1
  %10 = call i32 @mbedtls_dhm_parse_dhm(ptr noundef %4, ptr noundef @mbedtls_test_dhm_params, i64 noundef 251)
  store i32 %10, ptr %3, align 4, !tbaa !8
  %11 = icmp ne i32 %10, 0
  br i1 %11, label %12, label %18

12:                                               ; preds = %9
  %13 = load i32, ptr %2, align 4, !tbaa !8
  %14 = icmp ne i32 %13, 0
  br i1 %14, label %15, label %17

15:                                               ; preds = %12
  %16 = call i32 (ptr, ...) @printf(ptr noundef @.str.4)
  br label %17

17:                                               ; preds = %15, %12
  store i32 1, ptr %3, align 4, !tbaa !8
  br label %24

18:                                               ; preds = %9
  %19 = load i32, ptr %2, align 4, !tbaa !8
  %20 = icmp ne i32 %19, 0
  br i1 %20, label %21, label %23

21:                                               ; preds = %18
  %22 = call i32 (ptr, ...) @printf(ptr noundef @.str.5)
  br label %23

23:                                               ; preds = %21, %18
  br label %24

24:                                               ; preds = %23, %17
  call void @mbedtls_dhm_free(ptr noundef %4)
  %25 = load i32, ptr %3, align 4, !tbaa !8
  call void @llvm.lifetime.end.p0(i64 160, ptr %4) #10
  call void @llvm.lifetime.end.p0(i64 4, ptr %3) #10
  ret i32 %25
}