; Function Attrs: nounwind uwtable
define hidden range(i32 0, 2) i32 @mbedtls_dhm_self_test(i32 noundef %0) local_unnamed_addr #2 {
  %2 = alloca %struct.mbedtls_dhm_context, align 8
  call void @llvm.lifetime.start.p0(i64 160, ptr nonnull %2) #10
  call void @llvm.memset.p0.i64(ptr noundef nonnull align 8 dereferenceable(160) %2, i8 0, i64 160, i1 false)
  %.not = icmp eq i32 %0, 0
  br i1 %.not, label %3, label %.thread

3:                                                ; preds = %1
  %4 = call i32 @mbedtls_dhm_parse_dhm(ptr noundef nonnull %2, ptr noundef nonnull @mbedtls_test_dhm_params, i64 noundef 251)
  %.not5 = icmp ne i32 %4, 0
  %spec.select = zext i1 %.not5 to i32
  br label %9

.thread:                                          ; preds = %1
  %5 = tail call i32 (ptr, ...) @printf(ptr noundef nonnull dereferenceable(1) @.str.3)
  %6 = call i32 @mbedtls_dhm_parse_dhm(ptr noundef nonnull %2, ptr noundef nonnull @mbedtls_test_dhm_params, i64 noundef 251)
  %.not57 = icmp eq i32 %6, 0
  br i1 %.not57, label %8, label %7

7:                                                ; preds = %.thread
  %puts6 = call i32 @puts(ptr nonnull dereferenceable(1) @str.1)
  br label %9

8:                                                ; preds = %.thread
  %puts = call i32 @puts(ptr nonnull dereferenceable(1) @str)
  br label %9

9:                                                ; preds = %3, %7, %8
  %.0 = phi i32 [ 0, %8 ], [ 1, %7 ], [ %spec.select, %3 ]
  %10 = getelementptr inbounds nuw i8, ptr %2, i64 144
  call void @mbedtls_mpi_free(ptr noundef nonnull %10) #10
  %11 = getelementptr inbounds nuw i8, ptr %2, i64 128
  call void @mbedtls_mpi_free(ptr noundef nonnull %11) #10
  %12 = getelementptr inbounds nuw i8, ptr %2, i64 112
  call void @mbedtls_mpi_free(ptr noundef nonnull %12) #10
  %13 = getelementptr inbounds nuw i8, ptr %2, i64 96
  call void @mbedtls_mpi_free(ptr noundef nonnull %13) #10
  %14 = getelementptr inbounds nuw i8, ptr %2, i64 80
  call void @mbedtls_mpi_free(ptr noundef nonnull %14) #10
  %15 = getelementptr inbounds nuw i8, ptr %2, i64 64
  call void @mbedtls_mpi_free(ptr noundef nonnull %15) #10
  %16 = getelementptr inbounds nuw i8, ptr %2, i64 48
  call void @mbedtls_mpi_free(ptr noundef nonnull %16) #10
  %17 = getelementptr inbounds nuw i8, ptr %2, i64 32
  call void @mbedtls_mpi_free(ptr noundef nonnull %17) #10
  %18 = getelementptr inbounds nuw i8, ptr %2, i64 16
  call void @mbedtls_mpi_free(ptr noundef nonnull %18) #10
  call void @mbedtls_mpi_free(ptr noundef nonnull %2) #10
  call void @mbedtls_platform_zeroize(ptr noundef nonnull %2, i64 noundef 160) #10
  call void @llvm.lifetime.end.p0(i64 160, ptr nonnull %2) #10
  ret i32 %.0
}